target datalayout = "e-m:e-p270:32:32-p271:32:32-p272:64:64-i64:64-i128:128-f80:128-n8:16:32:64-S128"
target triple = "x86_64-pc-linux-gnu"

%struct.ItemPointerData = type { %struct.BlockIdData, i16 }
%struct.BlockIdData = type { i16, i16 }
%struct.HashScanOpaqueData = type { i32, i32, i32, i8, i8, ptr, i32, %struct.HashScanPosData }
%struct.HashScanPosData = type { i32, i32, i32, i32, i32, i32, i32, [408 x %struct.HashScanPosItem] }
%struct.HashScanPosItem = type { %struct.ItemPointerData, i16 }
%struct.IndexScanDescData = type { ptr, ptr, ptr, i32, i32, ptr, ptr, i8, i8, i8, i8, i8, ptr, ptr, ptr, ptr, ptr, %struct.ItemPointerData, i8, ptr, i8, ptr, ptr, i8, ptr }

; Function Attrs: inlinehint nounwind uwtable
define internal zeroext i1 @BlockNumberIsValid(i32 noundef %0) #2 {
  %2 = alloca i32, align 4
  store i32 %0, ptr %2, align 4
  %3 = load i32, ptr %2, align 4
  %4 = icmp ne i32 %3, -1
  ret i1 %4
}

; Function Attrs: nounwind uwtable
define dso_local zeroext i1 @hashgettuple(ptr noundef %0, i32 noundef %1) #0 {
  %3 = alloca ptr, align 8
  %4 = alloca i32, align 4
  %5 = alloca ptr, align 8
  %6 = alloca i8, align 1
  store ptr %0, ptr %3, align 8
  store i32 %1, ptr %4, align 4
  call void @llvm.lifetime.start.p0(i64 8, ptr %5) #6
  %7 = load ptr, ptr %3, align 8
  %8 = getelementptr inbounds nuw %struct.IndexScanDescData, ptr %7, i32 0, i32 12
  %9 = load ptr, ptr %8, align 8
  store ptr %9, ptr %5, align 8
  call void @llvm.lifetime.start.p0(i64 1, ptr %6) #6
  %10 = load ptr, ptr %3, align 8
  %11 = getelementptr inbounds nuw %struct.IndexScanDescData, ptr %10, i32 0, i32 20
  store i8 1, ptr %11, align 8
  %12 = load ptr, ptr %5, align 8
  %13 = getelementptr inbounds nuw %struct.HashScanOpaqueData, ptr %12, i32 0, i32 7
  %14 = getelementptr inbounds nuw %struct.HashScanPosData, ptr %13, i32 0, i32 1
  %15 = load i32, ptr %14, align 4
  %16 = call zeroext i1 @BlockNumberIsValid(i32 noundef %15)
  br i1 %16, label %22, label %17

17:                                               ; preds = %2
  %18 = load ptr, ptr %3, align 8
  %19 = load i32, ptr %4, align 4
  %20 = call zeroext i1 @_hash_first(ptr noundef %18, i32 noundef %19)
  %21 = zext i1 %20 to i8
  store i8 %21, ptr %6, align 1
  br label %61

22:                                               ; preds = %2
  %23 = load ptr, ptr %3, align 8
  %24 = getelementptr inbounds nuw %struct.IndexScanDescData, ptr %23, i32 0, i32 9
  %25 = load i8, ptr %24, align 2, !range !4, !noundef !5
  %26 = trunc i8 %25 to i1
  br i1 %26, label %27, label %56

27:                                               ; preds = %22
  %28 = load ptr, ptr %5, align 8
  %29 = getelementptr inbounds nuw %struct.HashScanOpaqueData, ptr %28, i32 0, i32 5
  %30 = load ptr, ptr %29, align 8
  %31 = icmp eq ptr %30, null
  br i1 %31, label %32, label %36

32:                                               ; preds = %27
  %33 = call ptr @palloc(i64 noundef 1632)
  %34 = load ptr, ptr %5, align 8
  %35 = getelementptr inbounds nuw %struct.HashScanOpaqueData, ptr %34, i32 0, i32 5
  store ptr %33, ptr %35, align 8
  br label %36

36:                                               ; preds = %32, %27
  %37 = load ptr, ptr %5, align 8
  %38 = getelementptr inbounds nuw %struct.HashScanOpaqueData, ptr %37, i32 0, i32 6
  %39 = load i32, ptr %38, align 8
  %40 = icmp slt i32 %39, 408
  br i1 %40, label %41, label %55

41:                                               ; preds = %36
  %42 = load ptr, ptr %5, align 8
  %43 = getelementptr inbounds nuw %struct.HashScanOpaqueData, ptr %42, i32 0, i32 7
  %44 = getelementptr inbounds nuw %struct.HashScanPosData, ptr %43, i32 0, i32 6
  %45 = load i32, ptr %44, align 4
  %46 = load ptr, ptr %5, align 8
  %47 = getelementptr inbounds nuw %struct.HashScanOpaqueData, ptr %46, i32 0, i32 5
  %48 = load ptr, ptr %47, align 8
  %49 = load ptr, ptr %5, align 8
  %50 = getelementptr inbounds nuw %struct.HashScanOpaqueData, ptr %49, i32 0, i32 6
  %51 = load i32, ptr %50, align 8
  %52 = add i32 %51, 1
  store i32 %52, ptr %50, align 8
  %53 = sext i32 %51 to i64
  %54 = getelementptr inbounds i32, ptr %48, i64 %53
  store i32 %45, ptr %54, align 4
  br label %55

55:                                               ; preds = %41, %36
  br label %56

56:                                               ; preds = %55, %22
  %57 = load ptr, ptr %3, align 8
  %58 = load i32, ptr %4, align 4
  %59 = call zeroext i1 @_hash_next(ptr noundef %57, i32 noundef %58)
  %60 = zext i1 %59 to i8
  store i8 %60, ptr %6, align 1
  br label %61

61:                                               ; preds = %56, %17
  %62 = load i8, ptr %6, align 1, !range !4, !noundef !5
  %63 = trunc i8 %62 to i1
  call void @llvm.lifetime.end.p0(i64 1, ptr %6) #6
  call void @llvm.lifetime.end.p0(i64 8, ptr %5) #6
  ret i1 %63
}