; Function Attrs: nounwind uwtable
define dso_local zeroext i1 @hashgettuple(ptr noundef initializes((112, 113)) %0, i32 noundef %1) #0 {
  %3 = getelementptr inbounds nuw i8, ptr %0, i64 56
  %4 = load ptr, ptr %3, align 8
  %5 = getelementptr inbounds nuw i8, ptr %0, i64 112
  store i8 1, ptr %5, align 8
  %6 = getelementptr inbounds nuw i8, ptr %4, i64 32
  %7 = load i32, ptr %6, align 4
  %.not = icmp eq i32 %7, -1
  br i1 %.not, label %8, label %10

8:                                                ; preds = %2
  %9 = tail call zeroext i1 @_hash_first(ptr noundef nonnull %0, i32 noundef %1) #9
  br label %33

10:                                               ; preds = %2
  %11 = getelementptr inbounds nuw i8, ptr %0, i64 50
  %12 = load i8, ptr %11, align 2, !range !6, !noundef !7
  %13 = trunc nuw i8 %12 to i1
  br i1 %13, label %14, label %31

14:                                               ; preds = %10
  %15 = getelementptr inbounds nuw i8, ptr %4, i64 16
  %16 = load ptr, ptr %15, align 8
  %17 = icmp eq ptr %16, null
  br i1 %17, label %18, label %20

18:                                               ; preds = %14
  %19 = tail call ptr @palloc(i64 noundef 1632) #9
  store ptr %19, ptr %15, align 8
  br label %20

20:                                               ; preds = %18, %14
  %21 = phi ptr [ %19, %18 ], [ %16, %14 ]
  %22 = getelementptr inbounds nuw i8, ptr %4, i64 24
  %23 = load i32, ptr %22, align 8
  %24 = icmp slt i32 %23, 408
  br i1 %24, label %25, label %31

25:                                               ; preds = %20
  %26 = getelementptr inbounds nuw i8, ptr %4, i64 52
  %27 = load i32, ptr %26, align 4
  %28 = add nsw i32 %23, 1
  store i32 %28, ptr %22, align 8
  %29 = sext i32 %23 to i64
  %30 = getelementptr inbounds i32, ptr %21, i64 %29
  store i32 %27, ptr %30, align 4
  br label %31

31:                                               ; preds = %20, %25, %10
  %32 = tail call zeroext i1 @_hash_next(ptr noundef nonnull %0, i32 noundef %1) #9
  br label %33

33:                                               ; preds = %31, %8
  %.0.in = phi i1 [ %32, %31 ], [ %9, %8 ]
  ret i1 %.0.in
}